; Function Attrs: nounwind uwtable
define ptr @l___private_Lean_Meta_Tactic_Grind_Internalize_0__Lean_Meta_Grind_pushCastHEqs___lambda__1___boxed(ptr noundef readonly captures(none) %0) local_unnamed_addr #1 {
  %2 = load ptr, ptr %0, align 8, !tbaa !9
  %3 = getelementptr inbounds nuw i8, ptr %0, i64 8
  %4 = load ptr, ptr %3, align 8, !tbaa !9
  %5 = getelementptr inbounds nuw i8, ptr %0, i64 16
  %6 = load ptr, ptr %5, align 8, !tbaa !9
  %7 = getelementptr inbounds nuw i8, ptr %0, i64 24
  %8 = load ptr, ptr %7, align 8, !tbaa !9
  %9 = getelementptr inbounds nuw i8, ptr %0, i64 32
  %10 = load ptr, ptr %9, align 8, !tbaa !9
  %11 = getelementptr inbounds nuw i8, ptr %0, i64 40
  %12 = load ptr, ptr %11, align 8, !tbaa !9
  %13 = getelementptr inbounds nuw i8, ptr %0, i64 48
  %14 = load ptr, ptr %13, align 8, !tbaa !9
  %15 = getelementptr inbounds nuw i8, ptr %0, i64 56
  %16 = load ptr, ptr %15, align 8, !tbaa !9
  %17 = getelementptr inbounds nuw i8, ptr %0, i64 64
  %18 = load ptr, ptr %17, align 8, !tbaa !9
  %19 = getelementptr inbounds nuw i8, ptr %0, i64 72
  %20 = load ptr, ptr %19, align 8, !tbaa !9
  %21 = getelementptr inbounds nuw i8, ptr %0, i64 80
  %22 = load ptr, ptr %21, align 8, !tbaa !9
  %23 = getelementptr inbounds nuw i8, ptr %0, i64 88
  %24 = load ptr, ptr %23, align 8, !tbaa !9
  %25 = getelementptr inbounds nuw i8, ptr %0, i64 96
  %26 = load ptr, ptr %25, align 8, !tbaa !9
  %27 = getelementptr inbounds nuw i8, ptr %0, i64 104
  %28 = load ptr, ptr %27, align 8, !tbaa !9
  %29 = getelementptr inbounds nuw i8, ptr %0, i64 112
  %30 = load ptr, ptr %29, align 8, !tbaa !9
  %31 = getelementptr inbounds nuw i8, ptr %0, i64 120
  %32 = load ptr, ptr %31, align 8, !tbaa !9
  %33 = getelementptr inbounds nuw i8, ptr %0, i64 128
  %34 = load ptr, ptr %33, align 8, !tbaa !9
  %35 = tail call ptr @l_Lean_Expr_constLevels_x21(ptr noundef %4) #4
  %36 = load ptr, ptr @l___private_Lean_Meta_Tactic_Grind_Internalize_0__Lean_Meta_Grind_pushCastHEqs___lambda__1___closed__4, align 8, !tbaa !9
  %37 = tail call ptr @l_Lean_Expr_const___override(ptr noundef %36, ptr noundef %35) #4
  %38 = ptrtoint ptr %16 to i64
  %39 = and i64 %38, 1
  %.not.i36 = icmp eq i64 %39, 0
  br i1 %.not.i36, label %40, label %l___private_Lean_Meta_Tactic_Grind_Internalize_0__Lean_Meta_Grind_pushCastHEqs___lambda__1.exit

40:                                               ; preds = %1
  %.val.i.i = load i32, ptr %16, align 4, !tbaa !4
  %41 = icmp sgt i32 %.val.i.i, 0
  br i1 %41, label %42, label %44, !prof !11

42:                                               ; preds = %40
  %43 = add nuw i32 %.val.i.i, 1
  store i32 %43, ptr %16, align 4, !tbaa !4
  br label %l___private_Lean_Meta_Tactic_Grind_Internalize_0__Lean_Meta_Grind_pushCastHEqs___lambda__1.exit

44:                                               ; preds = %40
  %.not.i.i = icmp eq i32 %.val.i.i, 0
  br i1 %.not.i.i, label %l___private_Lean_Meta_Tactic_Grind_Internalize_0__Lean_Meta_Grind_pushCastHEqs___lambda__1.exit, label %45

45:                                               ; preds = %44
  tail call void @lean_inc_ref_cold(ptr noundef nonnull %16) #4
  br label %l___private_Lean_Meta_Tactic_Grind_Internalize_0__Lean_Meta_Grind_pushCastHEqs___lambda__1.exit

l___private_Lean_Meta_Tactic_Grind_Internalize_0__Lean_Meta_Grind_pushCastHEqs___lambda__1.exit: ; preds = %1, %42, %44, %45
  %46 = tail call ptr @l_Lean_mkApp6(ptr noundef %37, ptr noundef %6, ptr noundef %8, ptr noundef %10, ptr noundef %12, ptr noundef %14, ptr noundef %16) #4
  %47 = tail call ptr @l_Lean_Meta_Grind_pushEqCore(ptr noundef %2, ptr noundef %16, ptr noundef %46, i8 noundef zeroext 1, ptr noundef %18, ptr noundef %20, ptr noundef %22, ptr noundef %24, ptr noundef %26, ptr noundef %28, ptr noundef %30, ptr noundef %32, ptr noundef %34) #4
  %48 = ptrtoint ptr %4 to i64
  %49 = and i64 %48, 1
  %.not = icmp eq i64 %49, 0
  br i1 %.not, label %50, label %lean_dec.exit

50:                                               ; preds = %l___private_Lean_Meta_Tactic_Grind_Internalize_0__Lean_Meta_Grind_pushCastHEqs___lambda__1.exit
  %51 = load i32, ptr %4, align 4, !tbaa !4
  %52 = icmp sgt i32 %51, 1
  br i1 %52, label %53, label %55, !prof !11

53:                                               ; preds = %50
  %54 = add nsw i32 %51, -1
  store i32 %54, ptr %4, align 4, !tbaa !4
  br label %lean_dec.exit

55:                                               ; preds = %50
  %.not.i = icmp eq i32 %51, 0
  br i1 %.not.i, label %lean_dec.exit, label %56

56:                                               ; preds = %55
  tail call void @lean_dec_ref_cold(ptr noundef nonnull %4) #4
  br label %lean_dec.exit

lean_dec.exit:                                    ; preds = %56, %55, %53, %l___private_Lean_Meta_Tactic_Grind_Internalize_0__Lean_Meta_Grind_pushCastHEqs___lambda__1.exit
  ret ptr %47
}